target datalayout = "e-m:e-p270:32:32-p271:32:32-p272:64:64-i64:64-i128:128-f80:128-n8:16:32:64-S128"
target triple = "x86_64-pc-linux-gnu"

%struct.FuncState = type { ptr, ptr, ptr, ptr, ptr, ptr, i32, i32, i32, i32, i32, i32, i16, i8, [60 x %struct.upvaldesc], [200 x i16] }
%struct.upvaldesc = type { i8, i8 }
%struct.Proto = type { ptr, i8, i8, ptr, ptr, ptr, ptr, ptr, ptr, ptr, i32, i32, i32, i32, i32, i32, i32, i32, ptr, i8, i8, i8, i8 }
%struct.LexState = type { i32, i32, i32, %struct.Token, %struct.Token, ptr, ptr, ptr, ptr, ptr, i8 }
%struct.Token = type { i32, %union.SemInfo }
%union.SemInfo = type { double }
%struct.lua_TValue = type { %union.Value, i32 }
%union.Value = type { ptr }
%struct.expdesc = type { i32, %union.anon, i32, i32 }
%union.anon = type { double }
%struct.anon = type { i32, i32 }

; Function Attrs: nounwind uwtable
define hidden i32 @luaK_numberK(ptr noundef %0, double noundef %1) #0 {
  %3 = alloca ptr, align 8
  %4 = alloca double, align 8
  %5 = alloca %struct.lua_TValue, align 8
  %6 = alloca ptr, align 8
  store ptr %0, ptr %3, align 8, !tbaa !4
  store double %1, ptr %4, align 8, !tbaa !58
  call void @llvm.lifetime.start.p0(i64 16, ptr %5) #6
  call void @llvm.lifetime.start.p0(i64 8, ptr %6) #6
  store ptr %5, ptr %6, align 8, !tbaa !45
  %7 = load double, ptr %4, align 8, !tbaa !58
  %8 = load ptr, ptr %6, align 8, !tbaa !45
  %9 = getelementptr inbounds nuw %struct.lua_TValue, ptr %8, i32 0, i32 0
  store double %7, ptr %9, align 8, !tbaa !46
  %10 = load ptr, ptr %6, align 8, !tbaa !45
  %11 = getelementptr inbounds nuw %struct.lua_TValue, ptr %10, i32 0, i32 1
  store i32 3, ptr %11, align 8, !tbaa !47
  call void @llvm.lifetime.end.p0(i64 8, ptr %6) #6
  %12 = load ptr, ptr %3, align 8, !tbaa !4
  %13 = call i32 @addk(ptr noundef %12, ptr noundef %5, ptr noundef %5)
  call void @llvm.lifetime.end.p0(i64 16, ptr %5) #6
  ret i32 %13
}

; Function Attrs: nounwind uwtable
define hidden i32 @luaK_codeABx(ptr noundef %0, i32 noundef %1, i32 noundef %2, i32 noundef %3) #0 {
  %5 = alloca ptr, align 8
  %6 = alloca i32, align 4
  %7 = alloca i32, align 4
  %8 = alloca i32, align 4
  store ptr %0, ptr %5, align 8, !tbaa !4
  store i32 %1, ptr %6, align 4, !tbaa !9
  store i32 %2, ptr %7, align 4, !tbaa !9
  store i32 %3, ptr %8, align 4, !tbaa !9
  %9 = load ptr, ptr %5, align 8, !tbaa !4
  %10 = load i32, ptr %6, align 4, !tbaa !9
  %11 = shl i32 %10, 0
  %12 = load i32, ptr %7, align 4, !tbaa !9
  %13 = shl i32 %12, 6
  %14 = or i32 %11, %13
  %15 = load i32, ptr %8, align 4, !tbaa !9
  %16 = shl i32 %15, 14
  %17 = or i32 %14, %16
  %18 = load ptr, ptr %5, align 8, !tbaa !4
  %19 = getelementptr inbounds nuw %struct.FuncState, ptr %18, i32 0, i32 3
  %20 = load ptr, ptr %19, align 8, !tbaa !32
  %21 = getelementptr inbounds nuw %struct.LexState, ptr %20, i32 0, i32 2
  %22 = load i32, ptr %21, align 8, !tbaa !33
  %23 = call i32 @luaK_code(ptr noundef %9, i32 noundef %17, i32 noundef %22)
  ret i32 %23
}

; Function Attrs: nounwind uwtable
define hidden i32 @luaK_codeABC(ptr noundef %0, i32 noundef %1, i32 noundef %2, i32 noundef %3, i32 noundef %4) #0 {
  %6 = alloca ptr, align 8
  %7 = alloca i32, align 4
  %8 = alloca i32, align 4
  %9 = alloca i32, align 4
  %10 = alloca i32, align 4
  store ptr %0, ptr %6, align 8, !tbaa !4
  store i32 %1, ptr %7, align 4, !tbaa !9
  store i32 %2, ptr %8, align 4, !tbaa !9
  store i32 %3, ptr %9, align 4, !tbaa !9
  store i32 %4, ptr %10, align 4, !tbaa !9
  %11 = load ptr, ptr %6, align 8, !tbaa !4
  %12 = load i32, ptr %7, align 4, !tbaa !9
  %13 = shl i32 %12, 0
  %14 = load i32, ptr %8, align 4, !tbaa !9
  %15 = shl i32 %14, 6
  %16 = or i32 %13, %15
  %17 = load i32, ptr %9, align 4, !tbaa !9
  %18 = shl i32 %17, 23
  %19 = or i32 %16, %18
  %20 = load i32, ptr %10, align 4, !tbaa !9
  %21 = shl i32 %20, 14
  %22 = or i32 %19, %21
  %23 = load ptr, ptr %6, align 8, !tbaa !4
  %24 = getelementptr inbounds nuw %struct.FuncState, ptr %23, i32 0, i32 3
  %25 = load ptr, ptr %24, align 8, !tbaa !32
  %26 = getelementptr inbounds nuw %struct.LexState, ptr %25, i32 0, i32 2
  %27 = load i32, ptr %26, align 8, !tbaa !33
  %28 = call i32 @luaK_code(ptr noundef %11, i32 noundef %22, i32 noundef %27)
  ret i32 %28
}

; Function Attrs: nounwind uwtable
define hidden void @luaK_nil(ptr noundef %0, i32 noundef %1, i32 noundef %2) #0 {
  %4 = alloca ptr, align 8
  %5 = alloca i32, align 4
  %6 = alloca i32, align 4
  %7 = alloca ptr, align 8
  %8 = alloca i32, align 4
  %9 = alloca i32, align 4
  %10 = alloca i32, align 4
  store ptr %0, ptr %4, align 8, !tbaa !4
  store i32 %1, ptr %5, align 4, !tbaa !9
  store i32 %2, ptr %6, align 4, !tbaa !9
  call void @llvm.lifetime.start.p0(i64 8, ptr %7) #6
  %11 = load ptr, ptr %4, align 8, !tbaa !4
  %12 = getelementptr inbounds nuw %struct.FuncState, ptr %11, i32 0, i32 6
  %13 = load i32, ptr %12, align 8, !tbaa !11
  %14 = load ptr, ptr %4, align 8, !tbaa !4
  %15 = getelementptr inbounds nuw %struct.FuncState, ptr %14, i32 0, i32 7
  %16 = load i32, ptr %15, align 4, !tbaa !19
  %17 = icmp sgt i32 %13, %16
  br i1 %17, label %18, label %92

18:                                               ; preds = %3
  %19 = load ptr, ptr %4, align 8, !tbaa !4
  %20 = getelementptr inbounds nuw %struct.FuncState, ptr %19, i32 0, i32 6
  %21 = load i32, ptr %20, align 8, !tbaa !11
  %22 = icmp eq i32 %21, 0
  br i1 %22, label %23, label %32

23:                                               ; preds = %18
  %24 = load i32, ptr %5, align 4, !tbaa !9
  %25 = load ptr, ptr %4, align 8, !tbaa !4
  %26 = getelementptr inbounds nuw %struct.FuncState, ptr %25, i32 0, i32 13
  %27 = load i8, ptr %26, align 2, !tbaa !20
  %28 = zext i8 %27 to i32
  %29 = icmp sge i32 %24, %28
  br i1 %29, label %30, label %31

30:                                               ; preds = %23
  store i32 1, ptr %8, align 4
  br label %100

31:                                               ; preds = %23
  br label %91

32:                                               ; preds = %18
  %33 = load ptr, ptr %4, align 8, !tbaa !4
  %34 = getelementptr inbounds nuw %struct.FuncState, ptr %33, i32 0, i32 0
  %35 = load ptr, ptr %34, align 8, !tbaa !21
  %36 = getelementptr inbounds nuw %struct.Proto, ptr %35, i32 0, i32 4
  %37 = load ptr, ptr %36, align 8, !tbaa !22
  %38 = load ptr, ptr %4, align 8, !tbaa !4
  %39 = getelementptr inbounds nuw %struct.FuncState, ptr %38, i32 0, i32 6
  %40 = load i32, ptr %39, align 8, !tbaa !11
  %41 = sub nsw i32 %40, 1
  %42 = sext i32 %41 to i64
  %43 = getelementptr inbounds i32, ptr %37, i64 %42
  store ptr %43, ptr %7, align 8, !tbaa !31
  %44 = load ptr, ptr %7, align 8, !tbaa !31
  %45 = load i32, ptr %44, align 4, !tbaa !9
  %46 = lshr i32 %45, 0
  %47 = and i32 %46, 63
  %48 = icmp eq i32 %47, 3
  br i1 %48, label %49, label %90

49:                                               ; preds = %32
  call void @llvm.lifetime.start.p0(i64 4, ptr %9) #6
  %50 = load ptr, ptr %7, align 8, !tbaa !31
  %51 = load i32, ptr %50, align 4, !tbaa !9
  %52 = lshr i32 %51, 6
  %53 = and i32 %52, 255
  store i32 %53, ptr %9, align 4, !tbaa !9
  call void @llvm.lifetime.start.p0(i64 4, ptr %10) #6
  %54 = load ptr, ptr %7, align 8, !tbaa !31
  %55 = load i32, ptr %54, align 4, !tbaa !9
  %56 = lshr i32 %55, 23
  %57 = and i32 %56, 511
  store i32 %57, ptr %10, align 4, !tbaa !9
  %58 = load i32, ptr %9, align 4, !tbaa !9
  %59 = load i32, ptr %5, align 4, !tbaa !9
  %60 = icmp sle i32 %58, %59
  br i1 %60, label %61, label %86

61:                                               ; preds = %49
  %62 = load i32, ptr %5, align 4, !tbaa !9
  %63 = load i32, ptr %10, align 4, !tbaa !9
  %64 = add nsw i32 %63, 1
  %65 = icmp sle i32 %62, %64
  br i1 %65, label %66, label %86

66:                                               ; preds = %61
  %67 = load i32, ptr %5, align 4, !tbaa !9
  %68 = load i32, ptr %6, align 4, !tbaa !9
  %69 = add nsw i32 %67, %68
  %70 = sub nsw i32 %69, 1
  %71 = load i32, ptr %10, align 4, !tbaa !9
  %72 = icmp sgt i32 %70, %71
  br i1 %72, label %73, label %85

73:                                               ; preds = %66
  %74 = load ptr, ptr %7, align 8, !tbaa !31
  %75 = load i32, ptr %74, align 4, !tbaa !9
  %76 = and i32 %75, 8388607
  %77 = load i32, ptr %5, align 4, !tbaa !9
  %78 = load i32, ptr %6, align 4, !tbaa !9
  %79 = add nsw i32 %77, %78
  %80 = sub nsw i32 %79, 1
  %81 = shl i32 %80, 23
  %82 = and i32 %81, -8388608
  %83 = or i32 %76, %82
  %84 = load ptr, ptr %7, align 8, !tbaa !31
  store i32 %83, ptr %84, align 4, !tbaa !9
  br label %85

85:                                               ; preds = %73, %66
  store i32 1, ptr %8, align 4
  br label %87

86:                                               ; preds = %61, %49
  store i32 0, ptr %8, align 4
  br label %87

87:                                               ; preds = %86, %85
  call void @llvm.lifetime.end.p0(i64 4, ptr %10) #6
  call void @llvm.lifetime.end.p0(i64 4, ptr %9) #6
  %88 = load i32, ptr %8, align 4
  switch i32 %88, label %100 [
    i32 0, label %89
  ]

89:                                               ; preds = %87
  br label %90

90:                                               ; preds = %89, %32
  br label %91

91:                                               ; preds = %90, %31
  br label %92

92:                                               ; preds = %91, %3
  %93 = load ptr, ptr %4, align 8, !tbaa !4
  %94 = load i32, ptr %5, align 4, !tbaa !9
  %95 = load i32, ptr %5, align 4, !tbaa !9
  %96 = load i32, ptr %6, align 4, !tbaa !9
  %97 = add nsw i32 %95, %96
  %98 = sub nsw i32 %97, 1
  %99 = call i32 @luaK_codeABC(ptr noundef %93, i32 noundef 3, i32 noundef %94, i32 noundef %98, i32 noundef 0)
  store i32 0, ptr %8, align 4
  br label %100

100:                                              ; preds = %92, %87, %30
  call void @llvm.lifetime.end.p0(i64 8, ptr %7) #6
  %101 = load i32, ptr %8, align 4
  switch i32 %101, label %103 [
    i32 0, label %102
    i32 1, label %102
  ]

102:                                              ; preds = %100, %100
  ret void

103:                                              ; preds = %100
  unreachable
}

; Function Attrs: nounwind uwtable
define internal void @discharge2reg(ptr noundef %0, ptr noundef %1, i32 noundef %2) #0 {
  %4 = alloca ptr, align 8
  %5 = alloca ptr, align 8
  %6 = alloca i32, align 4
  %7 = alloca ptr, align 8
  store ptr %0, ptr %4, align 8, !tbaa !4
  store ptr %1, ptr %5, align 8, !tbaa !60
  store i32 %2, ptr %6, align 4, !tbaa !9
  %8 = load ptr, ptr %4, align 8, !tbaa !4
  %9 = load ptr, ptr %5, align 8, !tbaa !60
  call void @luaK_dischargevars(ptr noundef %8, ptr noundef %9)
  %10 = load ptr, ptr %5, align 8, !tbaa !60
  %11 = getelementptr inbounds nuw %struct.expdesc, ptr %10, i32 0, i32 0
  %12 = load i32, ptr %11, align 8, !tbaa !62
  switch i32 %12, label %78 [
    i32 1, label %13
    i32 3, label %16
    i32 2, label %16
    i32 4, label %25
    i32 5, label %33
    i32 11, label %42
    i32 12, label %62
  ]

13:                                               ; preds = %3
  %14 = load ptr, ptr %4, align 8, !tbaa !4
  %15 = load i32, ptr %6, align 4, !tbaa !9
  call void @luaK_nil(ptr noundef %14, i32 noundef %15, i32 noundef 1)
  br label %79

16:                                               ; preds = %3, %3
  %17 = load ptr, ptr %4, align 8, !tbaa !4
  %18 = load i32, ptr %6, align 4, !tbaa !9
  %19 = load ptr, ptr %5, align 8, !tbaa !60
  %20 = getelementptr inbounds nuw %struct.expdesc, ptr %19, i32 0, i32 0
  %21 = load i32, ptr %20, align 8, !tbaa !62
  %22 = icmp eq i32 %21, 2
  %23 = zext i1 %22 to i32
  %24 = call i32 @luaK_codeABC(ptr noundef %17, i32 noundef 2, i32 noundef %18, i32 noundef %23, i32 noundef 0)
  br label %79

25:                                               ; preds = %3
  %26 = load ptr, ptr %4, align 8, !tbaa !4
  %27 = load i32, ptr %6, align 4, !tbaa !9
  %28 = load ptr, ptr %5, align 8, !tbaa !60
  %29 = getelementptr inbounds nuw %struct.expdesc, ptr %28, i32 0, i32 1
  %30 = getelementptr inbounds nuw %struct.anon, ptr %29, i32 0, i32 0
  %31 = load i32, ptr %30, align 8, !tbaa !46
  %32 = call i32 @luaK_codeABx(ptr noundef %26, i32 noundef 1, i32 noundef %27, i32 noundef %31)
  br label %79

33:                                               ; preds = %3
  %34 = load ptr, ptr %4, align 8, !tbaa !4
  %35 = load i32, ptr %6, align 4, !tbaa !9
  %36 = load ptr, ptr %4, align 8, !tbaa !4
  %37 = load ptr, ptr %5, align 8, !tbaa !60
  %38 = getelementptr inbounds nuw %struct.expdesc, ptr %37, i32 0, i32 1
  %39 = load double, ptr %38, align 8, !tbaa !46
  %40 = call i32 @luaK_numberK(ptr noundef %36, double noundef %39)
  %41 = call i32 @luaK_codeABx(ptr noundef %34, i32 noundef 1, i32 noundef %35, i32 noundef %40)
  br label %79

42:                                               ; preds = %3
  call void @llvm.lifetime.start.p0(i64 8, ptr %7) #6
  %43 = load ptr, ptr %4, align 8, !tbaa !4
  %44 = getelementptr inbounds nuw %struct.FuncState, ptr %43, i32 0, i32 0
  %45 = load ptr, ptr %44, align 8, !tbaa !21
  %46 = getelementptr inbounds nuw %struct.Proto, ptr %45, i32 0, i32 4
  %47 = load ptr, ptr %46, align 8, !tbaa !22
  %48 = load ptr, ptr %5, align 8, !tbaa !60
  %49 = getelementptr inbounds nuw %struct.expdesc, ptr %48, i32 0, i32 1
  %50 = getelementptr inbounds nuw %struct.anon, ptr %49, i32 0, i32 0
  %51 = load i32, ptr %50, align 8, !tbaa !46
  %52 = sext i32 %51 to i64
  %53 = getelementptr inbounds i32, ptr %47, i64 %52
  store ptr %53, ptr %7, align 8, !tbaa !31
  %54 = load ptr, ptr %7, align 8, !tbaa !31
  %55 = load i32, ptr %54, align 4, !tbaa !9
  %56 = and i32 %55, -16321
  %57 = load i32, ptr %6, align 4, !tbaa !9
  %58 = shl i32 %57, 6
  %59 = and i32 %58, 16320
  %60 = or i32 %56, %59
  %61 = load ptr, ptr %7, align 8, !tbaa !31
  store i32 %60, ptr %61, align 4, !tbaa !9
  call void @llvm.lifetime.end.p0(i64 8, ptr %7) #6
  br label %79

62:                                               ; preds = %3
  %63 = load i32, ptr %6, align 4, !tbaa !9
  %64 = load ptr, ptr %5, align 8, !tbaa !60
  %65 = getelementptr inbounds nuw %struct.expdesc, ptr %64, i32 0, i32 1
  %66 = getelementptr inbounds nuw %struct.anon, ptr %65, i32 0, i32 0
  %67 = load i32, ptr %66, align 8, !tbaa !46
  %68 = icmp ne i32 %63, %67
  br i1 %68, label %69, label %77

69:                                               ; preds = %62
  %70 = load ptr, ptr %4, align 8, !tbaa !4
  %71 = load i32, ptr %6, align 4, !tbaa !9
  %72 = load ptr, ptr %5, align 8, !tbaa !60
  %73 = getelementptr inbounds nuw %struct.expdesc, ptr %72, i32 0, i32 1
  %74 = getelementptr inbounds nuw %struct.anon, ptr %73, i32 0, i32 0
  %75 = load i32, ptr %74, align 8, !tbaa !46
  %76 = call i32 @luaK_codeABC(ptr noundef %70, i32 noundef 0, i32 noundef %71, i32 noundef %75, i32 noundef 0)
  br label %77

77:                                               ; preds = %69, %62
  br label %79

78:                                               ; preds = %3
  br label %86

79:                                               ; preds = %77, %42, %33, %25, %16, %13
  %80 = load i32, ptr %6, align 4, !tbaa !9
  %81 = load ptr, ptr %5, align 8, !tbaa !60
  %82 = getelementptr inbounds nuw %struct.expdesc, ptr %81, i32 0, i32 1
  %83 = getelementptr inbounds nuw %struct.anon, ptr %82, i32 0, i32 0
  store i32 %80, ptr %83, align 8, !tbaa !46
  %84 = load ptr, ptr %5, align 8, !tbaa !60
  %85 = getelementptr inbounds nuw %struct.expdesc, ptr %84, i32 0, i32 0
  store i32 12, ptr %85, align 8, !tbaa !62
  br label %86

86:                                               ; preds = %79, %78
  ret void
}