; Function Attrs: nounwind uwtable
define internal fastcc void @discharge2reg(ptr noundef captures(none) %0, ptr noundef captures(none) %1, i32 noundef %2) unnamed_addr #0 {
  %4 = alloca %struct.lua_TValue, align 8
  tail call void @luaK_dischargevars(ptr noundef %0, ptr noundef %1)
  %5 = load i32, ptr %1, align 8, !tbaa !51
  switch i32 %5, label %112 [
    i32 1, label %6
    i32 3, label %49
    i32 2, label %49
    i32 4, label %60
    i32 5, label %72
    i32 11, label %86
    i32 12, label %99
  ]

6:                                                ; preds = %3
  %7 = getelementptr inbounds nuw i8, ptr %0, i64 48
  %8 = load i32, ptr %7, align 8, !tbaa !4
  %9 = getelementptr inbounds nuw i8, ptr %0, i64 52
  %10 = load i32, ptr %9, align 4, !tbaa !17
  %11 = icmp sgt i32 %8, %10
  br i1 %11, label %12, label %39

12:                                               ; preds = %6
  %13 = icmp eq i32 %8, 0
  br i1 %13, label %14, label %18

14:                                               ; preds = %12
  %15 = getelementptr inbounds nuw i8, ptr %0, i64 74
  %16 = load i8, ptr %15, align 2, !tbaa !18
  %17 = zext i8 %16 to i32
  %.not29.i = icmp slt i32 %2, %17
  br i1 %.not29.i, label %39, label %luaK_nil.exit

18:                                               ; preds = %12
  %19 = load ptr, ptr %0, align 8, !tbaa !19
  %20 = getelementptr inbounds nuw i8, ptr %19, i64 24
  %21 = load ptr, ptr %20, align 8, !tbaa !20
  %22 = sext i32 %8 to i64
  %23 = getelementptr i32, ptr %21, i64 %22
  %24 = getelementptr i8, ptr %23, i64 -4
  %25 = load i32, ptr %24, align 4, !tbaa !29
  %26 = and i32 %25, 63
  %27 = icmp eq i32 %26, 3
  br i1 %27, label %28, label %39

28:                                               ; preds = %18
  %29 = lshr i32 %25, 6
  %30 = and i32 %29, 255
  %31 = lshr i32 %25, 23
  %.not.i = icmp sgt i32 %30, %2
  %32 = add nuw nsw i32 %31, 1
  %.not28.i = icmp sgt i32 %2, %32
  %or.cond.i = select i1 %.not.i, i1 true, i1 %.not28.i
  br i1 %or.cond.i, label %39, label %33

33:                                               ; preds = %28
  %34 = icmp samesign ugt i32 %2, %31
  br i1 %34, label %35, label %luaK_nil.exit

35:                                               ; preds = %33
  %36 = and i32 %25, 8388547
  %37 = shl i32 %2, 23
  %38 = or disjoint i32 %36, %37
  store i32 %38, ptr %24, align 4, !tbaa !29
  br label %luaK_nil.exit

39:                                               ; preds = %28, %18, %14, %6
  %40 = shl i32 %2, 6
  %41 = shl i32 %2, 23
  %42 = or i32 %41, %40
  %43 = or disjoint i32 %42, 3
  %44 = getelementptr inbounds nuw i8, ptr %0, i64 24
  %45 = load ptr, ptr %44, align 8, !tbaa !30
  %46 = getelementptr inbounds nuw i8, ptr %45, i64 8
  %47 = load i32, ptr %46, align 8, !tbaa !31
  %48 = tail call fastcc i32 @luaK_code(ptr noundef nonnull %0, i32 noundef %43, i32 noundef %47)
  br label %luaK_nil.exit

49:                                               ; preds = %3, %3
  %50 = icmp eq i32 %5, 2
  %51 = shl i32 %2, 6
  %52 = select i1 %50, i32 8388608, i32 2
  %53 = or i32 %51, %52
  %54 = or i32 %53, 2
  %55 = getelementptr inbounds nuw i8, ptr %0, i64 24
  %56 = load ptr, ptr %55, align 8, !tbaa !30
  %57 = getelementptr inbounds nuw i8, ptr %56, i64 8
  %58 = load i32, ptr %57, align 8, !tbaa !31
  %59 = tail call fastcc i32 @luaK_code(ptr noundef %0, i32 noundef %54, i32 noundef %58)
  br label %luaK_nil.exit

60:                                               ; preds = %3
  %61 = getelementptr inbounds nuw i8, ptr %1, i64 8
  %62 = load i32, ptr %61, align 8, !tbaa !39
  %63 = shl i32 %2, 6
  %64 = shl i32 %62, 14
  %65 = or i32 %63, %64
  %66 = or disjoint i32 %65, 1
  %67 = getelementptr inbounds nuw i8, ptr %0, i64 24
  %68 = load ptr, ptr %67, align 8, !tbaa !30
  %69 = getelementptr inbounds nuw i8, ptr %68, i64 8
  %70 = load i32, ptr %69, align 8, !tbaa !31
  %71 = tail call fastcc i32 @luaK_code(ptr noundef %0, i32 noundef %66, i32 noundef %70)
  br label %luaK_nil.exit

72:                                               ; preds = %3
  %73 = getelementptr inbounds nuw i8, ptr %1, i64 8
  %74 = load double, ptr %73, align 8, !tbaa !39
  call void @llvm.lifetime.start.p0(i64 16, ptr nonnull %4) #8
  store double %74, ptr %4, align 8, !tbaa !39
  %75 = getelementptr inbounds nuw i8, ptr %4, i64 8
  store i32 3, ptr %75, align 8, !tbaa !43
  %76 = call fastcc i32 @addk(ptr noundef %0, ptr noundef %4, ptr noundef %4)
  call void @llvm.lifetime.end.p0(i64 16, ptr nonnull %4) #8
  %77 = shl i32 %2, 6
  %78 = shl i32 %76, 14
  %79 = or i32 %77, %78
  %80 = or disjoint i32 %79, 1
  %81 = getelementptr inbounds nuw i8, ptr %0, i64 24
  %82 = load ptr, ptr %81, align 8, !tbaa !30
  %83 = getelementptr inbounds nuw i8, ptr %82, i64 8
  %84 = load i32, ptr %83, align 8, !tbaa !31
  %85 = call fastcc i32 @luaK_code(ptr noundef %0, i32 noundef %80, i32 noundef %84)
  br label %luaK_nil.exit

86:                                               ; preds = %3
  %87 = load ptr, ptr %0, align 8, !tbaa !19
  %88 = getelementptr inbounds nuw i8, ptr %87, i64 24
  %89 = load ptr, ptr %88, align 8, !tbaa !20
  %90 = getelementptr inbounds nuw i8, ptr %1, i64 8
  %91 = load i32, ptr %90, align 8, !tbaa !39
  %92 = sext i32 %91 to i64
  %93 = getelementptr inbounds i32, ptr %89, i64 %92
  %94 = load i32, ptr %93, align 4, !tbaa !29
  %95 = and i32 %94, -16321
  %96 = shl i32 %2, 6
  %97 = and i32 %96, 16320
  %98 = or disjoint i32 %95, %97
  store i32 %98, ptr %93, align 4, !tbaa !29
  br label %luaK_nil.exit

99:                                               ; preds = %3
  %100 = getelementptr inbounds nuw i8, ptr %1, i64 8
  %101 = load i32, ptr %100, align 8, !tbaa !39
  %.not = icmp eq i32 %2, %101
  br i1 %.not, label %luaK_nil.exit, label %102

102:                                              ; preds = %99
  %103 = shl i32 %2, 6
  %104 = shl i32 %101, 23
  %105 = or i32 %104, %103
  %106 = getelementptr inbounds nuw i8, ptr %0, i64 24
  %107 = load ptr, ptr %106, align 8, !tbaa !30
  %108 = getelementptr inbounds nuw i8, ptr %107, i64 8
  %109 = load i32, ptr %108, align 8, !tbaa !31
  %110 = tail call fastcc i32 @luaK_code(ptr noundef %0, i32 noundef %105, i32 noundef %109)
  br label %luaK_nil.exit

luaK_nil.exit:                                    ; preds = %39, %35, %33, %14, %99, %102, %86, %72, %60, %49
  %111 = getelementptr inbounds nuw i8, ptr %1, i64 8
  store i32 %2, ptr %111, align 8, !tbaa !39
  store i32 12, ptr %1, align 8, !tbaa !51
  br label %112

112:                                              ; preds = %3, %luaK_nil.exit
  ret void
}